target datalayout = "e-m:e-p270:32:32-p271:32:32-p272:64:64-i64:64-i128:128-f80:128-n8:16:32:64-S128"
target triple = "x86_64-pc-linux-gnu"

%struct.hb_ot_map_feature_t = type { i32, i32 }
%struct.hb_segment_properties_t = type { i32, i32, ptr, ptr, ptr }
%struct.khmer_shape_plan_t = type { [9 x i32] }
%struct.hb_ot_shape_plan_t = type <{ %struct.hb_segment_properties_t, ptr, %struct.hb_ot_map_t, ptr, i32, i32, i32, i32, i32, i32, i16, [6 x i8] }>
%struct.hb_ot_map_t = type { [2 x i32], [2 x i8], i32, %struct.hb_vector_t, [2 x %struct.hb_vector_t.0], [2 x %struct.hb_vector_t.1] }
%struct.hb_vector_t = type { i32, i32, ptr }
%struct.hb_vector_t.0 = type { i32, i32, ptr }
%struct.hb_vector_t.1 = type { i32, i32, ptr }
%"struct.hb_ot_map_t::feature_map_t" = type { i32, [2 x i32], [2 x i32], i32, i32, i32, i8 }
%struct.hb_sorted_array_t = type { %struct.hb_array_t }
%struct.hb_array_t = type { ptr, i32, i32 }
%struct.hb_array_t.10 = type { ptr, i32, i32 }

; Function Attrs: mustprogress uwtable
define internal noundef zeroext i1 @_ZL15hb_bsearch_implIKN11hb_ot_map_t13feature_map_tEjJEEbPjRKT0_PT_mmPFiPKvSA_DpT1_ESC_(ptr noundef %0, ptr noundef nonnull align 4 dereferenceable(4) %1, ptr noundef %2, i64 noundef %3, i64 noundef %4, ptr noundef %5) #0 {
  %7 = alloca i1, align 1
  %8 = alloca ptr, align 8
  %9 = alloca ptr, align 8
  %10 = alloca ptr, align 8
  %11 = alloca i64, align 8
  %12 = alloca i64, align 8
  %13 = alloca ptr, align 8
  %14 = alloca i32, align 4
  %15 = alloca i32, align 4
  %16 = alloca i32, align 4
  %17 = alloca ptr, align 8
  %18 = alloca i32, align 4
  store ptr %0, ptr %8, align 8
  store ptr %1, ptr %9, align 8
  store ptr %2, ptr %10, align 8
  store i64 %3, ptr %11, align 8
  store i64 %4, ptr %12, align 8
  store ptr %5, ptr %13, align 8
  store i32 0, ptr %14, align 4
  %19 = load i64, ptr %11, align 8
  %20 = trunc i64 %19 to i32
  %21 = sub nsw i32 %20, 1
  store i32 %21, ptr %15, align 4
  br label %22

22:                                               ; preds = %56, %6
  %23 = load i32, ptr %14, align 4
  %24 = load i32, ptr %15, align 4
  %25 = icmp sle i32 %23, %24
  br i1 %25, label %26, label %57

26:                                               ; preds = %22
  %27 = load i32, ptr %14, align 4
  %28 = load i32, ptr %15, align 4
  %29 = add i32 %27, %28
  %30 = udiv i32 %29, 2
  store i32 %30, ptr %16, align 4
  %31 = load ptr, ptr %10, align 8
  %32 = load i32, ptr %16, align 4
  %33 = sext i32 %32 to i64
  %34 = load i64, ptr %12, align 8
  %35 = mul i64 %33, %34
  %36 = getelementptr inbounds i8, ptr %31, i64 %35
  store ptr %36, ptr %17, align 8
  %37 = load ptr, ptr %13, align 8
  %38 = load ptr, ptr %9, align 8
  %39 = load ptr, ptr %17, align 8
  %40 = call noundef i32 %37(ptr noundef %38, ptr noundef %39)
  store i32 %40, ptr %18, align 4
  %41 = load i32, ptr %18, align 4
  %42 = icmp slt i32 %41, 0
  br i1 %42, label %43, label %46

43:                                               ; preds = %26
  %44 = load i32, ptr %16, align 4
  %45 = sub nsw i32 %44, 1
  store i32 %45, ptr %15, align 4
  br label %56

46:                                               ; preds = %26
  %47 = load i32, ptr %18, align 4
  %48 = icmp sgt i32 %47, 0
  br i1 %48, label %49, label %52

49:                                               ; preds = %46
  %50 = load i32, ptr %16, align 4
  %51 = add nsw i32 %50, 1
  store i32 %51, ptr %14, align 4
  br label %55

52:                                               ; preds = %46
  %53 = load i32, ptr %16, align 4
  %54 = load ptr, ptr %8, align 8
  store i32 %53, ptr %54, align 4
  store i1 true, ptr %7, align 1
  br label %60

55:                                               ; preds = %49
  br label %56

56:                                               ; preds = %55, %43
  br label %22, !llvm.loop !33

57:                                               ; preds = %22
  %58 = load i32, ptr %14, align 4
  %59 = load ptr, ptr %8, align 8
  store i32 %58, ptr %59, align 4
  store i1 false, ptr %7, align 1
  br label %60

60:                                               ; preds = %57, %52
  %61 = load i1, ptr %7, align 1
  ret i1 %61
}

; Function Attrs: mustprogress uwtable
define linkonce_odr hidden noundef zeroext i1 @_ZNK17hb_sorted_array_tIKN11hb_ot_map_t13feature_map_tEE12bsearch_implIjJEEEbRKT_PjDpT0_(ptr noundef nonnull align 8 dereferenceable(16) %0, ptr noundef nonnull align 4 dereferenceable(4) %1, ptr noundef %2) #0 comdat align 2 {
  %4 = alloca ptr, align 8
  %5 = alloca ptr, align 8
  %6 = alloca ptr, align 8
  store ptr %0, ptr %4, align 8
  store ptr %1, ptr %5, align 8
  store ptr %2, ptr %6, align 8
  %7 = load ptr, ptr %4, align 8
  %8 = load ptr, ptr %6, align 8
  %9 = load ptr, ptr %5, align 8
  %10 = getelementptr inbounds %struct.hb_array_t, ptr %7, i32 0, i32 0
  %11 = load ptr, ptr %10, align 8
  %12 = getelementptr inbounds %struct.hb_array_t, ptr %7, i32 0, i32 1
  %13 = load i32, ptr %12, align 8
  %14 = zext i32 %13 to i64
  %15 = call noundef zeroext i1 @_ZL15hb_bsearch_implIKN11hb_ot_map_t13feature_map_tEjJEEbPjRKT0_PT_mmPFiPKvSA_DpT1_ESC_(ptr noundef %8, ptr noundef nonnull align 4 dereferenceable(4) %9, ptr noundef %11, i64 noundef %14, i64 noundef 36, ptr noundef @_ZL14_hb_cmp_methodIjKN11hb_ot_map_t13feature_map_tEJEEiPKvS4_DpT1_)
  ret i1 %15
}

; Function Attrs: mustprogress nounwind uwtable
define linkonce_odr hidden void @_ZN10hb_array_tIKN11hb_ot_map_t13feature_map_tEEC2IS1_TnPN12hb_enable_ifIXsr20hb_is_cr_convertibleIT_S2_EE5valueEvE4typeELPv0EEERKS_IS6_E(ptr noundef nonnull align 8 dereferenceable(16) %0, ptr noundef nonnull align 8 dereferenceable(16) %1) unnamed_addr #1 comdat align 2 {
  %3 = alloca ptr, align 8
  %4 = alloca ptr, align 8
  store ptr %0, ptr %3, align 8
  store ptr %1, ptr %4, align 8
  %5 = load ptr, ptr %3, align 8
  %6 = getelementptr inbounds %struct.hb_array_t, ptr %5, i32 0, i32 0
  %7 = load ptr, ptr %4, align 8
  %8 = getelementptr inbounds %struct.hb_array_t.10, ptr %7, i32 0, i32 0
  %9 = load ptr, ptr %8, align 8
  store ptr %9, ptr %6, align 8
  %10 = getelementptr inbounds %struct.hb_array_t, ptr %5, i32 0, i32 1
  %11 = load ptr, ptr %4, align 8
  %12 = getelementptr inbounds %struct.hb_array_t.10, ptr %11, i32 0, i32 1
  %13 = load i32, ptr %12, align 8
  store i32 %13, ptr %10, align 8
  %14 = getelementptr inbounds %struct.hb_array_t, ptr %5, i32 0, i32 2
  %15 = load ptr, ptr %4, align 8
  %16 = getelementptr inbounds %struct.hb_array_t.10, ptr %15, i32 0, i32 2
  %17 = load i32, ptr %16, align 4
  store i32 %17, ptr %14, align 4
  ret void
}

; Function Attrs: mustprogress nounwind uwtable
define linkonce_odr hidden void @_ZN10hb_array_tIN11hb_ot_map_t13feature_map_tEEC2EPS1_j(ptr noundef nonnull align 8 dereferenceable(16) %0, ptr noundef %1, i32 noundef %2) unnamed_addr #1 comdat align 2 {
  %4 = alloca ptr, align 8
  %5 = alloca ptr, align 8
  %6 = alloca i32, align 4
  store ptr %0, ptr %4, align 8
  store ptr %1, ptr %5, align 8
  store i32 %2, ptr %6, align 4
  %7 = load ptr, ptr %4, align 8
  %8 = getelementptr inbounds %struct.hb_array_t.10, ptr %7, i32 0, i32 0
  %9 = load ptr, ptr %5, align 8
  store ptr %9, ptr %8, align 8
  %10 = getelementptr inbounds %struct.hb_array_t.10, ptr %7, i32 0, i32 1
  %11 = load i32, ptr %6, align 4
  store i32 %11, ptr %10, align 8
  %12 = getelementptr inbounds %struct.hb_array_t.10, ptr %7, i32 0, i32 2
  store i32 0, ptr %12, align 4
  ret void
}

; Function Attrs: mustprogress uwtable
define linkonce_odr hidden noundef zeroext i1 @_ZNK17hb_sorted_array_tIKN11hb_ot_map_t13feature_map_tEE5bfindIjEEbRKT_Pj14hb_not_found_tj(ptr noundef nonnull align 8 dereferenceable(16) %0, ptr noundef nonnull align 4 dereferenceable(4) %1, ptr noundef %2, i32 noundef %3, i32 noundef %4) #0 comdat align 2 {
  %6 = alloca i1, align 1
  %7 = alloca ptr, align 8
  %8 = alloca ptr, align 8
  %9 = alloca ptr, align 8
  %10 = alloca i32, align 4
  %11 = alloca i32, align 4
  %12 = alloca i32, align 4
  store ptr %0, ptr %7, align 8
  store ptr %1, ptr %8, align 8
  store ptr %2, ptr %9, align 8
  store i32 %3, ptr %10, align 4
  store i32 %4, ptr %11, align 4
  %13 = load ptr, ptr %7, align 8
  %14 = load ptr, ptr %8, align 8
  %15 = call noundef zeroext i1 @_ZNK17hb_sorted_array_tIKN11hb_ot_map_t13feature_map_tEE12bsearch_implIjJEEEbRKT_PjDpT0_(ptr noundef nonnull align 8 dereferenceable(16) %13, ptr noundef nonnull align 4 dereferenceable(4) %14, ptr noundef %12)
  br i1 %15, label %16, label %23

16:                                               ; preds = %5
  %17 = load ptr, ptr %9, align 8
  %18 = icmp ne ptr %17, null
  br i1 %18, label %19, label %22

19:                                               ; preds = %16
  %20 = load i32, ptr %12, align 4
  %21 = load ptr, ptr %9, align 8
  store i32 %20, ptr %21, align 4
  br label %22

22:                                               ; preds = %19, %16
  store i1 true, ptr %6, align 1
  br label %37

23:                                               ; preds = %5
  %24 = load ptr, ptr %9, align 8
  %25 = icmp ne ptr %24, null
  br i1 %25, label %26, label %36

26:                                               ; preds = %23
  %27 = load i32, ptr %10, align 4
  switch i32 %27, label %35 [
    i32 0, label %28
    i32 1, label %29
    i32 2, label %32
  ]

28:                                               ; preds = %26
  br label %35

29:                                               ; preds = %26
  %30 = load i32, ptr %11, align 4
  %31 = load ptr, ptr %9, align 8
  store i32 %30, ptr %31, align 4
  br label %35

32:                                               ; preds = %26
  %33 = load i32, ptr %12, align 4
  %34 = load ptr, ptr %9, align 8
  store i32 %33, ptr %34, align 4
  br label %35

35:                                               ; preds = %32, %29, %28, %26
  br label %36

36:                                               ; preds = %35, %23
  store i1 false, ptr %6, align 1
  br label %37

37:                                               ; preds = %36, %22
  %38 = load i1, ptr %6, align 1
  ret i1 %38
}

; Function Attrs: mustprogress uwtable
define linkonce_odr hidden void @_ZN17hb_sorted_array_tIKN11hb_ot_map_t13feature_map_tEEC2IS1_TnPN12hb_enable_ifIXsr20hb_is_cr_convertibleIT_S2_EE5valueEvE4typeELPv0EEERK10hb_array_tIS6_E(ptr noundef nonnull align 8 dereferenceable(16) %0, ptr noundef nonnull align 8 dereferenceable(16) %1) unnamed_addr #0 comdat align 2 {
  %3 = alloca ptr, align 8
  %4 = alloca ptr, align 8
  store ptr %0, ptr %3, align 8
  store ptr %1, ptr %4, align 8
  %5 = load ptr, ptr %3, align 8
  %6 = load ptr, ptr %4, align 8
  call void @_ZN10hb_array_tIKN11hb_ot_map_t13feature_map_tEEC2IS1_TnPN12hb_enable_ifIXsr20hb_is_cr_convertibleIT_S2_EE5valueEvE4typeELPv0EEERKS_IS6_E(ptr noundef nonnull align 8 dereferenceable(16) %5, ptr noundef nonnull align 8 dereferenceable(16) %6)
  ret void
}

; Function Attrs: mustprogress uwtable
define linkonce_odr hidden { ptr, i64 } @_Z8hb_arrayIN11hb_ot_map_t13feature_map_tEE10hb_array_tIT_EPS3_j(ptr noundef %0, i32 noundef %1) #0 comdat {
  %3 = alloca %struct.hb_array_t.10, align 8
  %4 = alloca ptr, align 8
  %5 = alloca i32, align 4
  store ptr %0, ptr %4, align 8
  store i32 %1, ptr %5, align 4
  %6 = load ptr, ptr %4, align 8
  %7 = load i32, ptr %5, align 4
  call void @_ZN10hb_array_tIN11hb_ot_map_t13feature_map_tEEC2EPS1_j(ptr noundef nonnull align 8 dereferenceable(16) %3, ptr noundef %6, i32 noundef %7)
  %8 = load { ptr, i64 }, ptr %3, align 8
  ret { ptr, i64 } %8
}

; Function Attrs: mustprogress uwtable
define linkonce_odr hidden noundef ptr @_ZN17hb_sorted_array_tIKN11hb_ot_map_t13feature_map_tEE7bsearchIjEEPS2_RKT_S5_(ptr noundef nonnull align 8 dereferenceable(16) %0, ptr noundef nonnull align 4 dereferenceable(4) %1, ptr noundef %2) #0 comdat align 2 {
  %4 = alloca ptr, align 8
  %5 = alloca ptr, align 8
  %6 = alloca ptr, align 8
  %7 = alloca i32, align 4
  store ptr %0, ptr %4, align 8
  store ptr %1, ptr %5, align 8
  store ptr %2, ptr %6, align 8
  %8 = load ptr, ptr %4, align 8
  %9 = load ptr, ptr %5, align 8
  %10 = call noundef zeroext i1 @_ZNK17hb_sorted_array_tIKN11hb_ot_map_t13feature_map_tEE5bfindIjEEbRKT_Pj14hb_not_found_tj(ptr noundef nonnull align 8 dereferenceable(16) %8, ptr noundef nonnull align 4 dereferenceable(4) %9, ptr noundef %7, i32 noundef 0, i32 noundef -1)
  br i1 %10, label %11, label %17

11:                                               ; preds = %3
  %12 = getelementptr inbounds %struct.hb_array_t, ptr %8, i32 0, i32 0
  %13 = load ptr, ptr %12, align 8
  %14 = load i32, ptr %7, align 4
  %15 = zext i32 %14 to i64
  %16 = getelementptr inbounds %"struct.hb_ot_map_t::feature_map_t", ptr %13, i64 %15
  br label %19

17:                                               ; preds = %3
  %18 = load ptr, ptr %6, align 8
  br label %19

19:                                               ; preds = %17, %11
  %20 = phi ptr [ %16, %11 ], [ %18, %17 ]
  ret ptr %20
}

; Function Attrs: mustprogress uwtable
define linkonce_odr hidden { ptr, i64 } @_ZNK11hb_vector_tIN11hb_ot_map_t13feature_map_tELb1EE8as_arrayEv(ptr noundef nonnull align 8 dereferenceable(16) %0) #0 comdat align 2 {
  %2 = alloca %struct.hb_sorted_array_t, align 8
  %3 = alloca ptr, align 8
  %4 = alloca %struct.hb_array_t.10, align 8
  store ptr %0, ptr %3, align 8
  %5 = load ptr, ptr %3, align 8
  %6 = getelementptr inbounds %struct.hb_vector_t, ptr %5, i32 0, i32 2
  %7 = load ptr, ptr %6, align 8
  %8 = getelementptr inbounds %struct.hb_vector_t, ptr %5, i32 0, i32 1
  %9 = load i32, ptr %8, align 4
  %10 = call { ptr, i64 } @_Z8hb_arrayIN11hb_ot_map_t13feature_map_tEE10hb_array_tIT_EPS3_j(ptr noundef %7, i32 noundef %9)
  %11 = getelementptr inbounds { ptr, i64 }, ptr %4, i32 0, i32 0
  %12 = extractvalue { ptr, i64 } %10, 0
  store ptr %12, ptr %11, align 8
  %13 = getelementptr inbounds { ptr, i64 }, ptr %4, i32 0, i32 1
  %14 = extractvalue { ptr, i64 } %10, 1
  store i64 %14, ptr %13, align 8
  call void @_ZN17hb_sorted_array_tIKN11hb_ot_map_t13feature_map_tEEC2IS1_TnPN12hb_enable_ifIXsr20hb_is_cr_convertibleIT_S2_EE5valueEvE4typeELPv0EEERK10hb_array_tIS6_E(ptr noundef nonnull align 8 dereferenceable(16) %2, ptr noundef nonnull align 8 dereferenceable(16) %4)
  %15 = getelementptr inbounds %struct.hb_sorted_array_t, ptr %2, i32 0, i32 0
  %16 = load { ptr, i64 }, ptr %15, align 8
  ret { ptr, i64 } %16
}

; Function Attrs: mustprogress uwtable
define linkonce_odr hidden noundef ptr @_ZNK11hb_vector_tIN11hb_ot_map_t13feature_map_tELb1EE7bsearchIjLb1ETnPN12hb_enable_ifIXT0_EvE4typeELPv0EEEPKS1_RKT_SA_(ptr noundef nonnull align 8 dereferenceable(16) %0, ptr noundef nonnull align 4 dereferenceable(4) %1, ptr noundef %2) #0 comdat align 2 {
  %4 = alloca ptr, align 8
  %5 = alloca ptr, align 8
  %6 = alloca ptr, align 8
  %7 = alloca %struct.hb_sorted_array_t, align 8
  store ptr %0, ptr %4, align 8
  store ptr %1, ptr %5, align 8
  store ptr %2, ptr %6, align 8
  %8 = load ptr, ptr %4, align 8
  %9 = call { ptr, i64 } @_ZNK11hb_vector_tIN11hb_ot_map_t13feature_map_tELb1EE8as_arrayEv(ptr noundef nonnull align 8 dereferenceable(16) %8)
  %10 = getelementptr inbounds %struct.hb_sorted_array_t, ptr %7, i32 0, i32 0
  %11 = getelementptr inbounds { ptr, i64 }, ptr %10, i32 0, i32 0
  %12 = extractvalue { ptr, i64 } %9, 0
  store ptr %12, ptr %11, align 8
  %13 = getelementptr inbounds { ptr, i64 }, ptr %10, i32 0, i32 1
  %14 = extractvalue { ptr, i64 } %9, 1
  store i64 %14, ptr %13, align 8
  %15 = load ptr, ptr %5, align 8
  %16 = load ptr, ptr %6, align 8
  %17 = call noundef ptr @_ZN17hb_sorted_array_tIKN11hb_ot_map_t13feature_map_tEE7bsearchIjEEPS2_RKT_S5_(ptr noundef nonnull align 8 dereferenceable(16) %7, ptr noundef nonnull align 4 dereferenceable(4) %15, ptr noundef %16)
  ret ptr %17
}

; Function Attrs: mustprogress uwtable
define linkonce_odr hidden noundef i32 @_ZNK11hb_ot_map_t10get_1_maskEj(ptr noundef nonnull align 8 dereferenceable(96) %0, i32 noundef %1) #0 comdat align 2 {
  %3 = alloca ptr, align 8
  %4 = alloca i32, align 4
  %5 = alloca ptr, align 8
  store ptr %0, ptr %3, align 8
  store i32 %1, ptr %4, align 4
  %6 = load ptr, ptr %3, align 8
  %7 = getelementptr inbounds %struct.hb_ot_map_t, ptr %6, i32 0, i32 3
  %8 = call noundef ptr @_ZNK11hb_vector_tIN11hb_ot_map_t13feature_map_tELb1EE7bsearchIjLb1ETnPN12hb_enable_ifIXT0_EvE4typeELPv0EEEPKS1_RKT_SA_(ptr noundef nonnull align 8 dereferenceable(16) %7, ptr noundef nonnull align 4 dereferenceable(4) %4, ptr noundef null)
  store ptr %8, ptr %5, align 8
  %9 = load ptr, ptr %5, align 8
  %10 = icmp ne ptr %9, null
  br i1 %10, label %11, label %15

11:                                               ; preds = %2
  %12 = load ptr, ptr %5, align 8
  %13 = getelementptr inbounds %"struct.hb_ot_map_t::feature_map_t", ptr %12, i32 0, i32 5
  %14 = load i32, ptr %13, align 4
  br label %16

15:                                               ; preds = %2
  br label %16

16:                                               ; preds = %15, %11
  %17 = phi i32 [ %14, %11 ], [ 0, %15 ]
  ret i32 %17
}

; Function Attrs: mustprogress nounwind uwtable
define internal noundef i32 @_Zan25hb_ot_map_feature_flags_tS_(i32 noundef %0, i32 noundef %1) #1 {
  %3 = alloca i32, align 4
  %4 = alloca i32, align 4
  store i32 %0, ptr %3, align 4
  store i32 %1, ptr %4, align 4
  %5 = load i32, ptr %3, align 4
  %6 = load i32, ptr %4, align 4
  %7 = and i32 %5, %6
  ret i32 %7
}

; Function Attrs: mustprogress nounwind uwtable
define internal noundef i32 @_ZL12ARRAY_LENGTHIjLj9EEjRAT0__KT_(ptr noundef nonnull align 4 dereferenceable(36) %0) #1 {
  %2 = alloca ptr, align 8
  store ptr %0, ptr %2, align 8
  ret i32 9
}

; Function Attrs: mustprogress uwtable
define internal noundef ptr @_ZL17data_create_khmerPK18hb_ot_shape_plan_t(ptr noundef %0) #0 {
  %2 = alloca ptr, align 8
  %3 = alloca ptr, align 8
  %4 = alloca ptr, align 8
  %5 = alloca i32, align 4
  store ptr %0, ptr %3, align 8
  %6 = call noalias ptr @calloc(i64 noundef 1, i64 noundef 36) #7
  store ptr %6, ptr %4, align 8
  %7 = load ptr, ptr %4, align 8
  %8 = icmp ne ptr %7, null
  br i1 %8, label %10, label %9

9:                                                ; preds = %1
  store ptr null, ptr %2, align 8
  br label %47

10:                                               ; preds = %1
  store i32 0, ptr %5, align 4
  br label %11

11:                                               ; preds = %42, %10
  %12 = load i32, ptr %5, align 4
  %13 = load ptr, ptr %4, align 8
  %14 = getelementptr inbounds %struct.khmer_shape_plan_t, ptr %13, i32 0, i32 0
  %15 = call noundef i32 @_ZL12ARRAY_LENGTHIjLj9EEjRAT0__KT_(ptr noundef nonnull align 4 dereferenceable(36) %14)
  %16 = icmp ult i32 %12, %15
  br i1 %16, label %17, label %45

17:                                               ; preds = %11
  %18 = load i32, ptr %5, align 4
  %19 = zext i32 %18 to i64
  %20 = getelementptr inbounds [9 x %struct.hb_ot_map_feature_t], ptr @_ZL14khmer_features, i64 0, i64 %19
  %21 = getelementptr inbounds %struct.hb_ot_map_feature_t, ptr %20, i32 0, i32 1
  %22 = load i32, ptr %21, align 4
  %23 = call noundef i32 @_Zan25hb_ot_map_feature_flags_tS_(i32 noundef %22, i32 noundef 1)
  %24 = icmp ne i32 %23, 0
  br i1 %24, label %25, label %26

25:                                               ; preds = %17
  br label %35

26:                                               ; preds = %17
  %27 = load ptr, ptr %3, align 8
  %28 = getelementptr inbounds %struct.hb_ot_shape_plan_t, ptr %27, i32 0, i32 2
  %29 = load i32, ptr %5, align 4
  %30 = zext i32 %29 to i64
  %31 = getelementptr inbounds [9 x %struct.hb_ot_map_feature_t], ptr @_ZL14khmer_features, i64 0, i64 %30
  %32 = getelementptr inbounds %struct.hb_ot_map_feature_t, ptr %31, i32 0, i32 0
  %33 = load i32, ptr %32, align 8
  %34 = call noundef i32 @_ZNK11hb_ot_map_t10get_1_maskEj(ptr noundef nonnull align 8 dereferenceable(96) %28, i32 noundef %33)
  br label %35

35:                                               ; preds = %26, %25
  %36 = phi i32 [ 0, %25 ], [ %34, %26 ]
  %37 = load ptr, ptr %4, align 8
  %38 = getelementptr inbounds %struct.khmer_shape_plan_t, ptr %37, i32 0, i32 0
  %39 = load i32, ptr %5, align 4
  %40 = zext i32 %39 to i64
  %41 = getelementptr inbounds [9 x i32], ptr %38, i64 0, i64 %40
  store i32 %36, ptr %41, align 4
  br label %42

42:                                               ; preds = %35
  %43 = load i32, ptr %5, align 4
  %44 = add i32 %43, 1
  store i32 %44, ptr %5, align 4
  br label %11, !llvm.loop !9

45:                                               ; preds = %11
  %46 = load ptr, ptr %4, align 8
  store ptr %46, ptr %2, align 8
  br label %47

47:                                               ; preds = %45, %9
  %48 = load ptr, ptr %2, align 8
  ret ptr %48
}