; Function Attrs: mustprogress nofree nounwind memory(readwrite, argmem: read) uwtable
define internal noalias noundef ptr @_ZL17data_create_khmerPK18hb_ot_shape_plan_t(ptr nocapture noundef readonly %0) #1 {
  %2 = tail call noalias dereferenceable_or_null(36) ptr @calloc(i64 noundef 1, i64 noundef 36) #10
  %.not = icmp eq ptr %2, null
  br i1 %.not, label %.loopexit, label %.preheader

.preheader:                                       ; preds = %1
  %3 = getelementptr inbounds i8, ptr %0, i64 64
  %4 = getelementptr inbounds i8, ptr %0, i64 60
  br label %5

5:                                                ; preds = %.preheader, %_ZNK11hb_ot_map_t10get_1_maskEj.exit
  %indvars.iv = phi i64 [ 0, %.preheader ], [ %indvars.iv.next, %_ZNK11hb_ot_map_t10get_1_maskEj.exit ]
  %6 = getelementptr inbounds [9 x %struct.hb_ot_map_feature_t], ptr @_ZL14khmer_features, i64 0, i64 %indvars.iv
  %7 = getelementptr inbounds i8, ptr %6, i64 4
  %8 = load i32, ptr %7, align 4
  %9 = and i32 %8, 1
  %.not12 = icmp eq i32 %9, 0
  br i1 %.not12, label %10, label %_ZNK11hb_ot_map_t10get_1_maskEj.exit

10:                                               ; preds = %5
  %11 = load i32, ptr %6, align 8
  %12 = load ptr, ptr %3, align 8
  %13 = load i32, ptr %4, align 4
  %.not2.i.i.i.i.i.i = icmp sgt i32 %13, 0
  br i1 %.not2.i.i.i.i.i.i, label %.lr.ph.preheader.i.i.i.i.i.i, label %_ZNK11hb_ot_map_t10get_1_maskEj.exit

.lr.ph.preheader.i.i.i.i.i.i:                     ; preds = %10
  %14 = add nsw i32 %13, -1
  br label %.lr.ph.i.i.i.i.i.i

.lr.ph.i.i.i.i.i.i:                               ; preds = %27, %.lr.ph.preheader.i.i.i.i.i.i
  %.0194.i.i.i.i.i.i = phi i32 [ %.1.i.i.i.i.i.i, %27 ], [ 0, %.lr.ph.preheader.i.i.i.i.i.i ]
  %.0203.i.i.i.i.i.i = phi i32 [ %.121.i.i.i.i.i.i, %27 ], [ %14, %.lr.ph.preheader.i.i.i.i.i.i ]
  %15 = add i32 %.0203.i.i.i.i.i.i, %.0194.i.i.i.i.i.i
  %16 = lshr i32 %15, 1
  %17 = zext nneg i32 %16 to i64
  %18 = mul nuw nsw i64 %17, 36
  %19 = getelementptr inbounds i8, ptr %12, i64 %18
  %20 = load i32, ptr %19, align 4
  %21 = icmp ugt i32 %20, %11
  br i1 %21, label %22, label %24

22:                                               ; preds = %.lr.ph.i.i.i.i.i.i
  %23 = add nsw i32 %16, -1
  br label %27

24:                                               ; preds = %.lr.ph.i.i.i.i.i.i
  %.not1.i.i.i.i.i.i = icmp ult i32 %20, %11
  br i1 %.not1.i.i.i.i.i.i, label %25, label %_ZNK11hb_vector_tIN11hb_ot_map_t13feature_map_tELb1EE7bsearchIjLb1ETnPN12hb_enable_ifIXT0_EvE4typeELPv0EEEPKS1_RKT_SA_.exit.i

25:                                               ; preds = %24
  %26 = add nuw nsw i32 %16, 1
  br label %27

27:                                               ; preds = %25, %22
  %.121.i.i.i.i.i.i = phi i32 [ %23, %22 ], [ %.0203.i.i.i.i.i.i, %25 ]
  %.1.i.i.i.i.i.i = phi i32 [ %.0194.i.i.i.i.i.i, %22 ], [ %26, %25 ]
  %.not.not.i.i.i.i.i.i = icmp sgt i32 %.1.i.i.i.i.i.i, %.121.i.i.i.i.i.i
  br i1 %.not.not.i.i.i.i.i.i, label %_ZNK11hb_ot_map_t10get_1_maskEj.exit, label %.lr.ph.i.i.i.i.i.i, !llvm.loop !9

_ZNK11hb_vector_tIN11hb_ot_map_t13feature_map_tELb1EE7bsearchIjLb1ETnPN12hb_enable_ifIXT0_EvE4typeELPv0EEEPKS1_RKT_SA_.exit.i: ; preds = %24
  %28 = getelementptr inbounds %"struct.hb_ot_map_t::feature_map_t", ptr %12, i64 %17, i32 5
  %29 = load i32, ptr %28, align 4
  br label %_ZNK11hb_ot_map_t10get_1_maskEj.exit

_ZNK11hb_ot_map_t10get_1_maskEj.exit:             ; preds = %27, %_ZNK11hb_vector_tIN11hb_ot_map_t13feature_map_tELb1EE7bsearchIjLb1ETnPN12hb_enable_ifIXT0_EvE4typeELPv0EEEPKS1_RKT_SA_.exit.i, %10, %5
  %30 = phi i32 [ 0, %5 ], [ %29, %_ZNK11hb_vector_tIN11hb_ot_map_t13feature_map_tELb1EE7bsearchIjLb1ETnPN12hb_enable_ifIXT0_EvE4typeELPv0EEEPKS1_RKT_SA_.exit.i ], [ 0, %10 ], [ 0, %27 ]
  %31 = getelementptr inbounds [9 x i32], ptr %2, i64 0, i64 %indvars.iv
  store i32 %30, ptr %31, align 4
  %indvars.iv.next = add nuw nsw i64 %indvars.iv, 1
  %exitcond.not = icmp eq i64 %indvars.iv.next, 9
  br i1 %exitcond.not, label %.loopexit, label %5, !llvm.loop !10

.loopexit:                                        ; preds = %_ZNK11hb_ot_map_t10get_1_maskEj.exit, %1
  ret ptr %2
}